; Function Attrs: mustprogress nounwind uwtable
define dso_local noundef zeroext i1 @_ZNK4llvm19TargetFrameLowering14enableCFIFixupERNS_15MachineFunctionE(ptr nonnull readnone align 8 captures(none) %0, ptr noundef nonnull align 8 dereferenceable(1041) %1) unnamed_addr #3 align 2 {
  %3 = tail call noundef zeroext i1 @_ZNK4llvm15MachineFunction15needsFrameMovesEv(ptr noundef nonnull align 8 dereferenceable(1041) %1) #9
  br i1 %3, label %4, label %_ZNK4llvm9MCAsmInfo14usesWindowsCFIEv.exit

4:                                                ; preds = %2
  %5 = getelementptr inbounds nuw i8, ptr %1, i64 8
  %6 = load ptr, ptr %5, align 8
  %7 = getelementptr inbounds nuw i8, ptr %6, i64 672
  %8 = load ptr, ptr %7, align 8
  %9 = getelementptr inbounds nuw i8, ptr %8, i64 412
  %10 = load i32, ptr %9, align 4
  %11 = icmp eq i32 %10, 4
  br i1 %11, label %12, label %_ZNK4llvm9MCAsmInfo14usesWindowsCFIEv.exit

12:                                               ; preds = %4
  %13 = getelementptr inbounds nuw i8, ptr %8, i64 420
  %14 = load i32, ptr %13, align 4
  %.not.i = icmp eq i32 %14, 0
  %15 = icmp eq i32 %14, 6
  %spec.select.i.not = or i1 %.not.i, %15
  br label %_ZNK4llvm9MCAsmInfo14usesWindowsCFIEv.exit

_ZNK4llvm9MCAsmInfo14usesWindowsCFIEv.exit:       ; preds = %12, %4, %2
  %16 = phi i1 [ false, %2 ], [ true, %4 ], [ %spec.select.i.not, %12 ]
  ret i1 %16
}